; Function Attrs: mustprogress nofree norecurse nosync nounwind willreturn memory(read, argmem: readwrite, inaccessiblemem: none) uwtable
define dso_local void @stbtt_GetGlyphHMetrics(ptr noundef readonly captures(none) %0, i32 noundef %1, ptr noundef writeonly %2, ptr noundef writeonly %3) local_unnamed_addr #4 {
  %5 = getelementptr inbounds nuw i8, ptr %0, i64 8
  %6 = load ptr, ptr %5, align 8
  %7 = getelementptr inbounds nuw i8, ptr %0, i64 36
  %8 = load i32, ptr %7, align 4
  %9 = sext i32 %8 to i64
  %10 = getelementptr inbounds i8, ptr %6, i64 %9
  %11 = getelementptr inbounds nuw i8, ptr %10, i64 34
  %.val = load i8, ptr %11, align 1
  %12 = getelementptr i8, ptr %10, i64 35
  %.val33 = load i8, ptr %12, align 1
  %13 = zext i8 %.val to i32
  %14 = shl nuw nsw i32 %13, 8
  %15 = zext i8 %.val33 to i32
  %16 = or disjoint i32 %14, %15
  %17 = icmp slt i32 %1, %16
  %.not31 = icmp eq ptr %2, null
  br i1 %17, label %18, label %45

18:                                               ; preds = %4
  br i1 %.not31, label %33, label %19

19:                                               ; preds = %18
  %20 = getelementptr inbounds nuw i8, ptr %0, i64 40
  %21 = load i32, ptr %20, align 8
  %22 = sext i32 %21 to i64
  %23 = getelementptr inbounds i8, ptr %6, i64 %22
  %24 = shl nsw i32 %1, 2
  %25 = sext i32 %24 to i64
  %26 = getelementptr inbounds i8, ptr %23, i64 %25
  %.val40 = load i8, ptr %26, align 1
  %27 = getelementptr i8, ptr %26, i64 1
  %.val41 = load i8, ptr %27, align 1
  %28 = zext i8 %.val40 to i16
  %29 = shl nuw i16 %28, 8
  %30 = zext i8 %.val41 to i16
  %31 = or disjoint i16 %29, %30
  %32 = sext i16 %31 to i32
  store i32 %32, ptr %2, align 4
  br label %33

33:                                               ; preds = %19, %18
  %.not32 = icmp eq ptr %3, null
  br i1 %.not32, label %81, label %34

34:                                               ; preds = %33
  %35 = load ptr, ptr %5, align 8
  %36 = getelementptr inbounds nuw i8, ptr %0, i64 40
  %37 = load i32, ptr %36, align 8
  %38 = sext i32 %37 to i64
  %39 = getelementptr inbounds i8, ptr %35, i64 %38
  %40 = shl nsw i32 %1, 2
  %41 = sext i32 %40 to i64
  %42 = getelementptr inbounds i8, ptr %39, i64 %41
  %43 = getelementptr inbounds nuw i8, ptr %42, i64 2
  %44 = getelementptr i8, ptr %42, i64 3
  br label %.sink.split

45:                                               ; preds = %4
  br i1 %.not31, label %61, label %46

46:                                               ; preds = %45
  %47 = getelementptr inbounds nuw i8, ptr %0, i64 40
  %48 = load i32, ptr %47, align 8
  %49 = sext i32 %48 to i64
  %50 = getelementptr inbounds i8, ptr %6, i64 %49
  %51 = shl nuw nsw i32 %16, 2
  %52 = zext nneg i32 %51 to i64
  %53 = getelementptr i8, ptr %50, i64 %52
  %54 = getelementptr i8, ptr %53, i64 -4
  %.val36 = load i8, ptr %54, align 1
  %55 = getelementptr i8, ptr %53, i64 -3
  %.val37 = load i8, ptr %55, align 1
  %56 = zext i8 %.val36 to i16
  %57 = shl nuw i16 %56, 8
  %58 = zext i8 %.val37 to i16
  %59 = or disjoint i16 %57, %58
  %60 = sext i16 %59 to i32
  store i32 %60, ptr %2, align 4
  br label %61

61:                                               ; preds = %46, %45
  %.not30 = icmp eq ptr %3, null
  br i1 %.not30, label %81, label %62

62:                                               ; preds = %61
  %63 = load ptr, ptr %5, align 8
  %64 = getelementptr inbounds nuw i8, ptr %0, i64 40
  %65 = load i32, ptr %64, align 8
  %66 = sext i32 %65 to i64
  %67 = getelementptr inbounds i8, ptr %63, i64 %66
  %68 = shl nuw nsw i32 %16, 2
  %69 = zext nneg i32 %68 to i64
  %70 = getelementptr inbounds nuw i8, ptr %67, i64 %69
  %71 = sub nsw i32 %1, %16
  %72 = shl nsw i32 %71, 1
  %73 = sext i32 %72 to i64
  %74 = getelementptr inbounds i8, ptr %70, i64 %73
  %75 = getelementptr i8, ptr %74, i64 1
  br label %.sink.split

.sink.split:                                      ; preds = %34, %62
  %.val34.sink.in = phi ptr [ %74, %62 ], [ %43, %34 ]
  %.val35.sink.in = phi ptr [ %75, %62 ], [ %44, %34 ]
  %.val35.sink = load i8, ptr %.val35.sink.in, align 1
  %.val34.sink = load i8, ptr %.val34.sink.in, align 1
  %76 = zext i8 %.val34.sink to i16
  %77 = shl nuw i16 %76, 8
  %78 = zext i8 %.val35.sink to i16
  %79 = or disjoint i16 %77, %78
  %80 = sext i16 %79 to i32
  store i32 %80, ptr %3, align 4
  br label %81

81:                                               ; preds = %.sink.split, %61, %33
  ret void
}